target datalayout = "e-m:e-p270:32:32-p271:32:32-p272:64:64-i64:64-i128:128-f80:128-n8:16:32:64-S128"
target triple = "x86_64-pc-linux-gnu"

%struct.mi_page_s = type { i8, i8, i16, i16, %union.mi_page_flags_s, i8, ptr, ptr, i16, i8, i8, i64, ptr, i64, i64, ptr, ptr }
%union.mi_page_flags_s = type { i8 }
%struct.mi_segment_s = type { %struct.mi_memid_s, i8, i8, i64, ptr, ptr, ptr, i8, i8, i64, i64, i64, i64, i64, i64, ptr, ptr, i64, i64, i32, [1 x %struct.mi_page_s] }
%struct.mi_memid_s = type { %union.anon, i8, i8, i8, i32 }
%union.anon = type { %struct.mi_memid_os_info }
%struct.mi_memid_os_info = type { ptr, i64 }
%struct.mi_heap_area_s = type { ptr, i64, i64, i64, i64, i64, i32 }

; Function Attrs: nounwind uwtable
define internal zeroext i1 @mi_segment_visit_page(ptr noundef %0, i1 noundef zeroext %1, ptr noundef %2, ptr noundef %3) #0 {
  %5 = alloca i1, align 1
  %6 = alloca ptr, align 8
  %7 = alloca i8, align 1
  %8 = alloca ptr, align 8
  %9 = alloca ptr, align 8
  %10 = alloca %struct.mi_heap_area_s, align 8
  %11 = alloca i32, align 4
  store ptr %0, ptr %6, align 8, !tbaa !8
  %12 = zext i1 %1 to i8
  store i8 %12, ptr %7, align 1, !tbaa !27
  store ptr %2, ptr %8, align 8, !tbaa !90
  store ptr %3, ptr %9, align 8, !tbaa !90
  call void @llvm.lifetime.start.p0(i64 56, ptr %10) #7
  %13 = load ptr, ptr %6, align 8, !tbaa !8
  call void @_mi_heap_area_init(ptr noundef %10, ptr noundef %13) #8
  %14 = load ptr, ptr %8, align 8, !tbaa !90
  %15 = getelementptr inbounds nuw %struct.mi_heap_area_s, ptr %10, i32 0, i32 4
  %16 = load i64, ptr %15, align 8, !tbaa !92
  %17 = load ptr, ptr %9, align 8, !tbaa !90
  %18 = call zeroext i1 %14(ptr noundef null, ptr noundef %10, ptr noundef null, i64 noundef %16, ptr noundef %17) #8
  br i1 %18, label %20, label %19

19:                                               ; preds = %4
  store i1 false, ptr %5, align 1
  store i32 1, ptr %11, align 4
  br label %29

20:                                               ; preds = %4
  %21 = load i8, ptr %7, align 1, !tbaa !27, !range !30, !noundef !31
  %22 = trunc i8 %21 to i1
  br i1 %22, label %23, label %28

23:                                               ; preds = %20
  %24 = load ptr, ptr %6, align 8, !tbaa !8
  %25 = load ptr, ptr %8, align 8, !tbaa !90
  %26 = load ptr, ptr %9, align 8, !tbaa !90
  %27 = call zeroext i1 @_mi_heap_area_visit_blocks(ptr noundef %10, ptr noundef %24, ptr noundef %25, ptr noundef %26) #8
  store i1 %27, ptr %5, align 1
  store i32 1, ptr %11, align 4
  br label %29

28:                                               ; preds = %20
  store i1 true, ptr %5, align 1
  store i32 1, ptr %11, align 4
  br label %29

29:                                               ; preds = %28, %23, %19
  call void @llvm.lifetime.end.p0(i64 56, ptr %10) #7
  %30 = load i1, ptr %5, align 1
  ret i1 %30
}

; Function Attrs: nounwind uwtable
define hidden zeroext i1 @_mi_segment_visit_blocks(ptr noundef %0, i32 noundef %1, i1 noundef zeroext %2, ptr noundef %3, ptr noundef %4) #0 {
  %6 = alloca i1, align 1
  %7 = alloca ptr, align 8
  %8 = alloca i32, align 4
  %9 = alloca i8, align 1
  %10 = alloca ptr, align 8
  %11 = alloca ptr, align 8
  %12 = alloca i64, align 8
  %13 = alloca i32, align 4
  %14 = alloca ptr, align 8
  store ptr %0, ptr %7, align 8, !tbaa !3
  store i32 %1, ptr %8, align 4, !tbaa !83
  %15 = zext i1 %2 to i8
  store i8 %15, ptr %9, align 1, !tbaa !27
  store ptr %3, ptr %10, align 8, !tbaa !90
  store ptr %4, ptr %11, align 8, !tbaa !90
  call void @llvm.lifetime.start.p0(i64 8, ptr %12) #7
  store i64 0, ptr %12, align 8, !tbaa !14
  br label %16

16:                                               ; preds = %57, %5
  %17 = load i64, ptr %12, align 8, !tbaa !14
  %18 = load ptr, ptr %7, align 8, !tbaa !3
  %19 = getelementptr inbounds nuw %struct.mi_segment_s, ptr %18, i32 0, i32 12
  %20 = load i64, ptr %19, align 8, !tbaa !43
  %21 = icmp ult i64 %17, %20
  br i1 %21, label %23, label %22

22:                                               ; preds = %16
  store i32 2, ptr %13, align 4
  br label %60

23:                                               ; preds = %16
  call void @llvm.lifetime.start.p0(i64 8, ptr %14) #7
  %24 = load ptr, ptr %7, align 8, !tbaa !3
  %25 = getelementptr inbounds nuw %struct.mi_segment_s, ptr %24, i32 0, i32 20
  %26 = load i64, ptr %12, align 8, !tbaa !14
  %27 = getelementptr inbounds nuw [1 x %struct.mi_page_s], ptr %25, i64 0, i64 %26
  store ptr %27, ptr %14, align 8, !tbaa !8
  %28 = load ptr, ptr %14, align 8, !tbaa !8
  %29 = getelementptr inbounds nuw %struct.mi_page_s, ptr %28, i32 0, i32 1
  %30 = load i8, ptr %29, align 1
  %31 = and i8 %30, 1
  %32 = icmp ne i8 %31, 0
  br i1 %32, label %33, label %53

33:                                               ; preds = %23
  %34 = load i32, ptr %8, align 4, !tbaa !83
  %35 = icmp slt i32 %34, 0
  br i1 %35, label %43, label %36

36:                                               ; preds = %33
  %37 = load ptr, ptr %14, align 8, !tbaa !8
  %38 = getelementptr inbounds nuw %struct.mi_page_s, ptr %37, i32 0, i32 10
  %39 = load i8, ptr %38, align 1, !tbaa !52
  %40 = zext i8 %39 to i32
  %41 = load i32, ptr %8, align 4, !tbaa !83
  %42 = icmp eq i32 %40, %41
  br i1 %42, label %43, label %52

43:                                               ; preds = %36, %33
  %44 = load ptr, ptr %14, align 8, !tbaa !8
  %45 = load i8, ptr %9, align 1, !tbaa !27, !range !30, !noundef !31
  %46 = trunc i8 %45 to i1
  %47 = load ptr, ptr %10, align 8, !tbaa !90
  %48 = load ptr, ptr %11, align 8, !tbaa !90
  %49 = call zeroext i1 @mi_segment_visit_page(ptr noundef %44, i1 noundef zeroext %46, ptr noundef %47, ptr noundef %48) #8
  br i1 %49, label %51, label %50

50:                                               ; preds = %43
  store i1 false, ptr %6, align 1
  store i32 1, ptr %13, align 4
  br label %54

51:                                               ; preds = %43
  br label %52

52:                                               ; preds = %51, %36
  br label %53

53:                                               ; preds = %52, %23
  store i32 0, ptr %13, align 4
  br label %54

54:                                               ; preds = %53, %50
  call void @llvm.lifetime.end.p0(i64 8, ptr %14) #7
  %55 = load i32, ptr %13, align 4
  switch i32 %55, label %60 [
    i32 0, label %56
  ]

56:                                               ; preds = %54
  br label %57

57:                                               ; preds = %56
  %58 = load i64, ptr %12, align 8, !tbaa !14
  %59 = add i64 %58, 1
  store i64 %59, ptr %12, align 8, !tbaa !14
  br label %16, !llvm.loop !91

60:                                               ; preds = %54, %22
  call void @llvm.lifetime.end.p0(i64 8, ptr %12) #7
  %61 = load i32, ptr %13, align 4
  switch i32 %61, label %65 [
    i32 2, label %62
    i32 1, label %63
  ]

62:                                               ; preds = %60
  store i1 true, ptr %6, align 1
  br label %63

63:                                               ; preds = %62, %60
  %64 = load i1, ptr %6, align 1
  ret i1 %64

65:                                               ; preds = %60
  unreachable
}