; Function Attrs: nounwind uwtable
define hidden noundef zeroext i1 @_mi_segment_visit_blocks(ptr noundef %0, i32 noundef %1, i1 noundef zeroext %2, ptr noundef %3, ptr noundef %4) local_unnamed_addr #2 {
  %6 = alloca %struct.mi_heap_area_s, align 8
  %7 = getelementptr inbounds nuw i8, ptr %0, i64 96
  %8 = load i64, ptr %7, align 8, !tbaa !43
  %9 = icmp eq i64 %8, 0
  br i1 %9, label %._crit_edge, label %.lr.ph

.lr.ph:                                           ; preds = %5
  %10 = getelementptr inbounds nuw i8, ptr %0, i64 160
  %11 = icmp slt i32 %1, 0
  %12 = getelementptr inbounds nuw i8, ptr %6, i64 32
  br i1 %2, label %.lr.ph.split, label %.lr.ph.split.us

.lr.ph.split.us:                                  ; preds = %.lr.ph
  br i1 %11, label %.lr.ph.split.us.split.us, label %.lr.ph.split.us.split

.lr.ph.split.us.split.us:                         ; preds = %.lr.ph.split.us, %.critedge.us.us
  %13 = phi i64 [ %20, %.critedge.us.us ], [ %8, %.lr.ph.split.us ]
  %.01719.us.us = phi i64 [ %21, %.critedge.us.us ], [ 0, %.lr.ph.split.us ]
  %14 = getelementptr inbounds nuw [1 x %struct.mi_page_s], ptr %10, i64 0, i64 %.01719.us.us
  %15 = getelementptr inbounds nuw i8, ptr %14, i64 1
  %16 = load i8, ptr %15, align 1
  %17 = and i8 %16, 1
  %.not.us.us = icmp eq i8 %17, 0
  br i1 %.not.us.us, label %.critedge.us.us, label %mi_segment_visit_page.exit.us.us

mi_segment_visit_page.exit.us.us:                 ; preds = %.lr.ph.split.us.split.us
  call void @llvm.lifetime.start.p0(i64 56, ptr nonnull %6) #9
  call void @_mi_heap_area_init(ptr noundef nonnull %6, ptr noundef nonnull %14) #8
  %18 = load i64, ptr %12, align 8, !tbaa !94
  %19 = call zeroext i1 %3(ptr noundef null, ptr noundef nonnull %6, ptr noundef null, i64 noundef %18, ptr noundef %4) #8
  call void @llvm.lifetime.end.p0(i64 56, ptr nonnull %6) #9
  br i1 %19, label %mi_segment_visit_page.exit.us.us..critedge.us.us_crit_edge, label %._crit_edge

mi_segment_visit_page.exit.us.us..critedge.us.us_crit_edge: ; preds = %mi_segment_visit_page.exit.us.us
  %.pre45 = load i64, ptr %7, align 8, !tbaa !43
  br label %.critedge.us.us

.critedge.us.us:                                  ; preds = %mi_segment_visit_page.exit.us.us..critedge.us.us_crit_edge, %.lr.ph.split.us.split.us
  %20 = phi i64 [ %.pre45, %mi_segment_visit_page.exit.us.us..critedge.us.us_crit_edge ], [ %13, %.lr.ph.split.us.split.us ]
  %21 = add nuw i64 %.01719.us.us, 1
  %.not36 = icmp ult i64 %21, %20
  br i1 %.not36, label %.lr.ph.split.us.split.us, label %._crit_edge, !llvm.loop !96

.lr.ph.split.us.split:                            ; preds = %.lr.ph.split.us, %.critedge.us
  %22 = phi i64 [ %34, %.critedge.us ], [ %8, %.lr.ph.split.us ]
  %.01719.us = phi i64 [ %35, %.critedge.us ], [ 0, %.lr.ph.split.us ]
  %23 = getelementptr inbounds nuw [1 x %struct.mi_page_s], ptr %10, i64 0, i64 %.01719.us
  %24 = getelementptr inbounds nuw i8, ptr %23, i64 1
  %25 = load i8, ptr %24, align 1
  %26 = and i8 %25, 1
  %.not.us = icmp eq i8 %26, 0
  br i1 %.not.us, label %.critedge.us, label %27

27:                                               ; preds = %.lr.ph.split.us.split
  %28 = getelementptr inbounds nuw i8, ptr %23, i64 27
  %29 = load i8, ptr %28, align 1, !tbaa !51
  %30 = zext i8 %29 to i32
  %31 = icmp eq i32 %1, %30
  br i1 %31, label %mi_segment_visit_page.exit.us, label %.critedge.us

mi_segment_visit_page.exit.us:                    ; preds = %27
  call void @llvm.lifetime.start.p0(i64 56, ptr nonnull %6) #9
  call void @_mi_heap_area_init(ptr noundef nonnull %6, ptr noundef nonnull %23) #8
  %32 = load i64, ptr %12, align 8, !tbaa !94
  %33 = call zeroext i1 %3(ptr noundef null, ptr noundef nonnull %6, ptr noundef null, i64 noundef %32, ptr noundef %4) #8
  call void @llvm.lifetime.end.p0(i64 56, ptr nonnull %6) #9
  br i1 %33, label %mi_segment_visit_page.exit.us..critedge.us_crit_edge, label %._crit_edge

mi_segment_visit_page.exit.us..critedge.us_crit_edge: ; preds = %mi_segment_visit_page.exit.us
  %.pre = load i64, ptr %7, align 8, !tbaa !43
  br label %.critedge.us

.critedge.us:                                     ; preds = %mi_segment_visit_page.exit.us..critedge.us_crit_edge, %27, %.lr.ph.split.us.split
  %34 = phi i64 [ %.pre, %mi_segment_visit_page.exit.us..critedge.us_crit_edge ], [ %22, %27 ], [ %22, %.lr.ph.split.us.split ]
  %35 = add nuw i64 %.01719.us, 1
  %.not35 = icmp ult i64 %35, %34
  br i1 %.not35, label %.lr.ph.split.us.split, label %._crit_edge, !llvm.loop !96

.lr.ph.split:                                     ; preds = %.lr.ph
  br i1 %11, label %.lr.ph.split.split.us, label %.lr.ph.split.split

.lr.ph.split.split.us:                            ; preds = %.lr.ph.split, %.critedge.us27
  %36 = phi i64 [ %46, %.critedge.us27 ], [ %8, %.lr.ph.split ]
  %.01719.us24 = phi i64 [ %47, %.critedge.us27 ], [ 0, %.lr.ph.split ]
  %37 = getelementptr inbounds nuw [1 x %struct.mi_page_s], ptr %10, i64 0, i64 %.01719.us24
  %38 = getelementptr inbounds nuw i8, ptr %37, i64 1
  %39 = load i8, ptr %38, align 1
  %40 = and i8 %39, 1
  %.not.us25 = icmp eq i8 %40, 0
  br i1 %.not.us25, label %.critedge.us27, label %41

41:                                               ; preds = %.lr.ph.split.split.us
  call void @llvm.lifetime.start.p0(i64 56, ptr nonnull %6) #9
  call void @_mi_heap_area_init(ptr noundef nonnull %6, ptr noundef nonnull %37) #8
  %42 = load i64, ptr %12, align 8, !tbaa !94
  %43 = call zeroext i1 %3(ptr noundef null, ptr noundef nonnull %6, ptr noundef null, i64 noundef %42, ptr noundef %4) #8
  br i1 %43, label %44, label %._crit_edge.sink.split

44:                                               ; preds = %41
  %45 = call zeroext i1 @_mi_heap_area_visit_blocks(ptr noundef nonnull %6, ptr noundef nonnull %37, ptr noundef %3, ptr noundef %4) #8
  call void @llvm.lifetime.end.p0(i64 56, ptr nonnull %6) #9
  br i1 %45, label %..critedge.us27_crit_edge, label %._crit_edge

..critedge.us27_crit_edge:                        ; preds = %44
  %.pre47 = load i64, ptr %7, align 8, !tbaa !43
  br label %.critedge.us27

.critedge.us27:                                   ; preds = %..critedge.us27_crit_edge, %.lr.ph.split.split.us
  %46 = phi i64 [ %.pre47, %..critedge.us27_crit_edge ], [ %36, %.lr.ph.split.split.us ]
  %47 = add nuw i64 %.01719.us24, 1
  %.not38 = icmp ult i64 %47, %46
  br i1 %.not38, label %.lr.ph.split.split.us, label %._crit_edge, !llvm.loop !96

.lr.ph.split.split:                               ; preds = %.lr.ph.split, %.critedge
  %48 = phi i64 [ %63, %.critedge ], [ %8, %.lr.ph.split ]
  %.01719 = phi i64 [ %64, %.critedge ], [ 0, %.lr.ph.split ]
  %49 = getelementptr inbounds nuw [1 x %struct.mi_page_s], ptr %10, i64 0, i64 %.01719
  %50 = getelementptr inbounds nuw i8, ptr %49, i64 1
  %51 = load i8, ptr %50, align 1
  %52 = and i8 %51, 1
  %.not = icmp eq i8 %52, 0
  br i1 %.not, label %.critedge, label %53

53:                                               ; preds = %.lr.ph.split.split
  %54 = getelementptr inbounds nuw i8, ptr %49, i64 27
  %55 = load i8, ptr %54, align 1, !tbaa !51
  %56 = zext i8 %55 to i32
  %57 = icmp eq i32 %1, %56
  br i1 %57, label %58, label %.critedge

58:                                               ; preds = %53
  call void @llvm.lifetime.start.p0(i64 56, ptr nonnull %6) #9
  call void @_mi_heap_area_init(ptr noundef nonnull %6, ptr noundef nonnull %49) #8
  %59 = load i64, ptr %12, align 8, !tbaa !94
  %60 = call zeroext i1 %3(ptr noundef null, ptr noundef nonnull %6, ptr noundef null, i64 noundef %59, ptr noundef %4) #8
  br i1 %60, label %61, label %._crit_edge.sink.split

61:                                               ; preds = %58
  %62 = call zeroext i1 @_mi_heap_area_visit_blocks(ptr noundef nonnull %6, ptr noundef nonnull %49, ptr noundef %3, ptr noundef %4) #8
  call void @llvm.lifetime.end.p0(i64 56, ptr nonnull %6) #9
  br i1 %62, label %..critedge_crit_edge, label %._crit_edge

..critedge_crit_edge:                             ; preds = %61
  %.pre46 = load i64, ptr %7, align 8, !tbaa !43
  br label %.critedge

.critedge:                                        ; preds = %..critedge_crit_edge, %53, %.lr.ph.split.split
  %63 = phi i64 [ %.pre46, %..critedge_crit_edge ], [ %48, %53 ], [ %48, %.lr.ph.split.split ]
  %64 = add nuw i64 %.01719, 1
  %.not37 = icmp ult i64 %64, %63
  br i1 %.not37, label %.lr.ph.split.split, label %._crit_edge, !llvm.loop !96

._crit_edge.sink.split:                           ; preds = %58, %41
  call void @llvm.lifetime.end.p0(i64 56, ptr nonnull %6) #9
  br label %._crit_edge

._crit_edge:                                      ; preds = %.critedge.us, %mi_segment_visit_page.exit.us, %.critedge.us.us, %mi_segment_visit_page.exit.us.us, %.critedge, %61, %.critedge.us27, %44, %._crit_edge.sink.split, %5
  %.lcssa = phi i1 [ true, %5 ], [ false, %._crit_edge.sink.split ], [ false, %44 ], [ true, %.critedge.us27 ], [ false, %61 ], [ true, %.critedge ], [ false, %mi_segment_visit_page.exit.us.us ], [ true, %.critedge.us.us ], [ false, %mi_segment_visit_page.exit.us ], [ true, %.critedge.us ]
  ret i1 %.lcssa
}